target datalayout = "e-m:e-p270:32:32-p271:32:32-p272:64:64-i64:64-i128:128-f80:128-n8:16:32:64-S128"
target triple = "x86_64-pc-linux-gnu"

%class.Type = type { i32, ptr, i32, %"class.std::vector.8", %"class.std::vector.13", i32, i8, i8, i8, i8, i8, %"class.std::vector.18", %"class.std::vector.23" }
%"class.std::vector.8" = type { %"struct.std::_Vector_base.9" }
%"struct.std::_Vector_base.9" = type { %"struct.std::_Vector_base<unsigned int, std::allocator<unsigned int>>::_Vector_impl" }
%"struct.std::_Vector_base<unsigned int, std::allocator<unsigned int>>::_Vector_impl" = type { %"struct.std::_Vector_base<unsigned int, std::allocator<unsigned int>>::_Vector_impl_data" }
%"struct.std::_Vector_base<unsigned int, std::allocator<unsigned int>>::_Vector_impl_data" = type { ptr, ptr, ptr }
%"class.std::vector.13" = type { %"struct.std::_Vector_base.14" }
%"struct.std::_Vector_base.14" = type { %"struct.std::_Vector_base<const Type *, std::allocator<const Type *>>::_Vector_impl" }
%"struct.std::_Vector_base<const Type *, std::allocator<const Type *>>::_Vector_impl" = type { %"struct.std::_Vector_base<const Type *, std::allocator<const Type *>>::_Vector_impl_data" }
%"struct.std::_Vector_base<const Type *, std::allocator<const Type *>>::_Vector_impl_data" = type { ptr, ptr, ptr }
%"class.std::vector.18" = type { %"struct.std::_Vector_base.19" }
%"struct.std::_Vector_base.19" = type { %"struct.std::_Vector_base<CVQualifiers, std::allocator<CVQualifiers>>::_Vector_impl" }
%"struct.std::_Vector_base<CVQualifiers, std::allocator<CVQualifiers>>::_Vector_impl" = type { %"struct.std::_Vector_base<CVQualifiers, std::allocator<CVQualifiers>>::_Vector_impl_data" }
%"struct.std::_Vector_base<CVQualifiers, std::allocator<CVQualifiers>>::_Vector_impl_data" = type { ptr, ptr, ptr }
%"class.std::vector.23" = type { %"struct.std::_Vector_base.24" }
%"struct.std::_Vector_base.24" = type { %"struct.std::_Vector_base<int, std::allocator<int>>::_Vector_impl" }
%"struct.std::_Vector_base<int, std::allocator<int>>::_Vector_impl" = type { %"struct.std::_Vector_base<int, std::allocator<int>>::_Vector_impl_data" }
%"struct.std::_Vector_base<int, std::allocator<int>>::_Vector_impl_data" = type { ptr, ptr, ptr }

; Function Attrs: mustprogress nounwind uwtable
define linkonce_odr dso_local noundef zeroext i1 @_ZNK4Type8is_floatEv(ptr noundef nonnull align 8 dereferenceable(136) %0) #4 comdat align 2 {
  %2 = alloca ptr, align 8
  store ptr %0, ptr %2, align 8
  %3 = load ptr, ptr %2, align 8
  %4 = getelementptr inbounds %class.Type, ptr %3, i32 0, i32 0
  %5 = load i32, ptr %4, align 8
  %6 = icmp eq i32 %5, 0
  br i1 %6, label %7, label %11

7:                                                ; preds = %1
  %8 = getelementptr inbounds %class.Type, ptr %3, i32 0, i32 2
  %9 = load i32, ptr %8, align 8
  %10 = icmp eq i32 %9, 10
  br label %11

11:                                               ; preds = %7, %1
  %12 = phi i1 [ false, %1 ], [ %10, %7 ]
  ret i1 %12
}

; Function Attrs: mustprogress uwtable
define dso_local noundef zeroext i1 @_ZNK4Type14is_convertableEPKS_(ptr noundef nonnull align 8 dereferenceable(136) %0, ptr noundef %1) #5 align 2 {
  %3 = alloca i1, align 1
  %4 = alloca ptr, align 8
  %5 = alloca ptr, align 8
  store ptr %0, ptr %4, align 8
  store ptr %1, ptr %5, align 8
  %6 = load ptr, ptr %4, align 8
  %7 = load ptr, ptr %5, align 8
  %8 = icmp eq ptr %6, %7
  br i1 %8, label %9, label %10

9:                                                ; preds = %2
  store i1 true, ptr %3, align 1
  br label %129

10:                                               ; preds = %2
  %11 = getelementptr inbounds %class.Type, ptr %6, i32 0, i32 0
  %12 = load i32, ptr %11, align 8
  %13 = icmp eq i32 %12, 0
  br i1 %13, label %14, label %43

14:                                               ; preds = %10
  %15 = load ptr, ptr %5, align 8
  %16 = getelementptr inbounds %class.Type, ptr %15, i32 0, i32 0
  %17 = load i32, ptr %16, align 8
  %18 = icmp eq i32 %17, 0
  br i1 %18, label %19, label %43

19:                                               ; preds = %14
  %20 = load ptr, ptr %5, align 8
  %21 = call noundef zeroext i1 @_ZNK4Type8is_floatEv(ptr noundef nonnull align 8 dereferenceable(136) %20)
  br i1 %21, label %22, label %25

22:                                               ; preds = %19
  %23 = call noundef zeroext i1 @_ZNK4Type8is_floatEv(ptr noundef nonnull align 8 dereferenceable(136) %6)
  br i1 %23, label %25, label %24

24:                                               ; preds = %22
  store i1 false, ptr %3, align 1
  br label %129

25:                                               ; preds = %22, %19
  %26 = getelementptr inbounds %class.Type, ptr %6, i32 0, i32 2
  %27 = load i32, ptr %26, align 8
  %28 = icmp ne i32 %27, 0
  br i1 %28, label %29, label %34

29:                                               ; preds = %25
  %30 = load ptr, ptr %5, align 8
  %31 = getelementptr inbounds %class.Type, ptr %30, i32 0, i32 2
  %32 = load i32, ptr %31, align 8
  %33 = icmp ne i32 %32, 0
  br i1 %33, label %41, label %34

34:                                               ; preds = %29, %25
  %35 = getelementptr inbounds %class.Type, ptr %6, i32 0, i32 2
  %36 = load i32, ptr %35, align 8
  %37 = load ptr, ptr %5, align 8
  %38 = getelementptr inbounds %class.Type, ptr %37, i32 0, i32 2
  %39 = load i32, ptr %38, align 8
  %40 = icmp eq i32 %36, %39
  br i1 %40, label %41, label %42

41:                                               ; preds = %34, %29
  store i1 true, ptr %3, align 1
  br label %129

42:                                               ; preds = %34
  br label %128

43:                                               ; preds = %14, %10
  %44 = getelementptr inbounds %class.Type, ptr %6, i32 0, i32 0
  %45 = load i32, ptr %44, align 8
  %46 = icmp eq i32 %45, 1
  br i1 %46, label %47, label %127

47:                                               ; preds = %43
  %48 = load ptr, ptr %5, align 8
  %49 = getelementptr inbounds %class.Type, ptr %48, i32 0, i32 0
  %50 = load i32, ptr %49, align 8
  %51 = icmp eq i32 %50, 1
  br i1 %51, label %52, label %127

52:                                               ; preds = %47
  %53 = getelementptr inbounds %class.Type, ptr %6, i32 0, i32 1
  %54 = load ptr, ptr %53, align 8
  %55 = load ptr, ptr %5, align 8
  %56 = getelementptr inbounds %class.Type, ptr %55, i32 0, i32 1
  %57 = load ptr, ptr %56, align 8
  %58 = icmp eq ptr %54, %57
  br i1 %58, label %59, label %60

59:                                               ; preds = %52
  store i1 true, ptr %3, align 1
  br label %129

60:                                               ; preds = %52
  %61 = getelementptr inbounds %class.Type, ptr %6, i32 0, i32 1
  %62 = load ptr, ptr %61, align 8
  %63 = getelementptr inbounds %class.Type, ptr %62, i32 0, i32 0
  %64 = load i32, ptr %63, align 8
  %65 = icmp eq i32 %64, 0
  br i1 %65, label %66, label %126

66:                                               ; preds = %60
  %67 = load ptr, ptr %5, align 8
  %68 = getelementptr inbounds %class.Type, ptr %67, i32 0, i32 1
  %69 = load ptr, ptr %68, align 8
  %70 = getelementptr inbounds %class.Type, ptr %69, i32 0, i32 0
  %71 = load i32, ptr %70, align 8
  %72 = icmp eq i32 %71, 0
  br i1 %72, label %73, label %126

73:                                               ; preds = %66
  %74 = getelementptr inbounds %class.Type, ptr %6, i32 0, i32 1
  %75 = load ptr, ptr %74, align 8
  %76 = getelementptr inbounds %class.Type, ptr %75, i32 0, i32 2
  %77 = load i32, ptr %76, align 8
  %78 = load ptr, ptr %5, align 8
  %79 = getelementptr inbounds %class.Type, ptr %78, i32 0, i32 1
  %80 = load ptr, ptr %79, align 8
  %81 = getelementptr inbounds %class.Type, ptr %80, i32 0, i32 2
  %82 = load i32, ptr %81, align 8
  %83 = icmp eq i32 %77, %82
  br i1 %83, label %84, label %85

84:                                               ; preds = %73
  store i1 true, ptr %3, align 1
  br label %129

85:                                               ; preds = %73
  %86 = call noundef zeroext i1 @_ZN9CGOptions12strict_floatEv()
  br i1 %86, label %87, label %114

87:                                               ; preds = %85
  %88 = getelementptr inbounds %class.Type, ptr %6, i32 0, i32 1
  %89 = load ptr, ptr %88, align 8
  %90 = getelementptr inbounds %class.Type, ptr %89, i32 0, i32 2
  %91 = load i32, ptr %90, align 8
  %92 = icmp eq i32 %91, 10
  br i1 %92, label %93, label %100

93:                                               ; preds = %87
  %94 = load ptr, ptr %5, align 8
  %95 = getelementptr inbounds %class.Type, ptr %94, i32 0, i32 1
  %96 = load ptr, ptr %95, align 8
  %97 = getelementptr inbounds %class.Type, ptr %96, i32 0, i32 2
  %98 = load i32, ptr %97, align 8
  %99 = icmp ne i32 %98, 10
  br i1 %99, label %113, label %100

100:                                              ; preds = %93, %87
  %101 = getelementptr inbounds %class.Type, ptr %6, i32 0, i32 1
  %102 = load ptr, ptr %101, align 8
  %103 = getelementptr inbounds %class.Type, ptr %102, i32 0, i32 2
  %104 = load i32, ptr %103, align 8
  %105 = icmp ne i32 %104, 10
  br i1 %105, label %106, label %114

106:                                              ; preds = %100
  %107 = load ptr, ptr %5, align 8
  %108 = getelementptr inbounds %class.Type, ptr %107, i32 0, i32 1
  %109 = load ptr, ptr %108, align 8
  %110 = getelementptr inbounds %class.Type, ptr %109, i32 0, i32 2
  %111 = load i32, ptr %110, align 8
  %112 = icmp eq i32 %111, 10
  br i1 %112, label %113, label %114

113:                                              ; preds = %106, %93
  store i1 false, ptr %3, align 1
  br label %129

114:                                              ; preds = %106, %100, %85
  %115 = call noundef zeroext i1 @_ZN9CGOptions8lang_cppEv()
  br i1 %115, label %116, label %117

116:                                              ; preds = %114
  store i1 false, ptr %3, align 1
  br label %129

117:                                              ; preds = %114
  %118 = getelementptr inbounds %class.Type, ptr %6, i32 0, i32 1
  %119 = load ptr, ptr %118, align 8
  %120 = call noundef i64 @_ZNK4Type11SizeInBytesEv(ptr noundef nonnull align 8 dereferenceable(136) %119)
  %121 = load ptr, ptr %5, align 8
  %122 = getelementptr inbounds %class.Type, ptr %121, i32 0, i32 1
  %123 = load ptr, ptr %122, align 8
  %124 = call noundef i64 @_ZNK4Type11SizeInBytesEv(ptr noundef nonnull align 8 dereferenceable(136) %123)
  %125 = icmp eq i64 %120, %124
  store i1 %125, ptr %3, align 1
  br label %129

126:                                              ; preds = %66, %60
  br label %127

127:                                              ; preds = %126, %47, %43
  br label %128

128:                                              ; preds = %127, %42
  store i1 false, ptr %3, align 1
  br label %129

129:                                              ; preds = %128, %117, %116, %113, %84, %59, %41, %24, %9
  %130 = load i1, ptr %3, align 1
  ret i1 %130
}