; Function Attrs: mustprogress uwtable
define dso_local noundef zeroext i1 @_ZNK4Type14is_convertableEPKS_(ptr noundef nonnull readonly align 8 dereferenceable(136) %0, ptr noundef readonly %1) local_unnamed_addr #4 align 2 {
  %3 = icmp eq ptr %0, %1
  br i1 %3, label %.thread22, label %4

4:                                                ; preds = %2
  %5 = load i32, ptr %0, align 8
  switch i32 %5, label %.thread24 [
    i32 0, label %6
    i32 1, label %19
  ]

6:                                                ; preds = %4
  %7 = load i32, ptr %1, align 8
  %8 = icmp eq i32 %7, 0
  br i1 %8, label %9, label %.thread24

9:                                                ; preds = %6
  %10 = getelementptr inbounds i8, ptr %1, i64 16
  %11 = load i32, ptr %10, align 8
  %12 = icmp eq i32 %11, 10
  %13 = getelementptr inbounds i8, ptr %0, i64 16
  %14 = load i32, ptr %13, align 8
  br i1 %12, label %15, label %17

15:                                               ; preds = %9
  %16 = icmp eq i32 %14, 10
  br label %.thread22

17:                                               ; preds = %9
  %.not19 = icmp ne i32 %14, 0
  %.not20 = icmp ne i32 %11, 0
  %or.cond.not27 = and i1 %.not19, %.not20
  %18 = icmp eq i32 %14, %11
  %or.cond26 = or i1 %or.cond.not27, %18
  br i1 %or.cond26, label %.thread22, label %.thread24

19:                                               ; preds = %4
  %20 = load i32, ptr %1, align 8
  %21 = icmp eq i32 %20, 1
  br i1 %21, label %22, label %.thread24

22:                                               ; preds = %19
  %23 = getelementptr inbounds i8, ptr %0, i64 8
  %24 = load ptr, ptr %23, align 8
  %25 = getelementptr inbounds i8, ptr %1, i64 8
  %26 = load ptr, ptr %25, align 8
  %27 = icmp eq ptr %24, %26
  br i1 %27, label %.thread22, label %28

28:                                               ; preds = %22
  %29 = load i32, ptr %24, align 8
  %30 = icmp eq i32 %29, 0
  br i1 %30, label %31, label %.thread24

31:                                               ; preds = %28
  %32 = load i32, ptr %26, align 8
  %33 = icmp eq i32 %32, 0
  br i1 %33, label %34, label %.thread24

34:                                               ; preds = %31
  %35 = getelementptr inbounds i8, ptr %24, i64 16
  %36 = load i32, ptr %35, align 8
  %37 = getelementptr inbounds i8, ptr %26, i64 16
  %38 = load i32, ptr %37, align 8
  %39 = icmp eq i32 %36, %38
  br i1 %39, label %.thread22, label %40

40:                                               ; preds = %34
  %41 = tail call noundef zeroext i1 @_ZN9CGOptions12strict_floatEv()
  br i1 %41, label %42, label %.thread25

42:                                               ; preds = %40
  %43 = load ptr, ptr %23, align 8
  %44 = getelementptr inbounds i8, ptr %43, i64 16
  %45 = load i32, ptr %44, align 8
  %46 = icmp eq i32 %45, 10
  %47 = load ptr, ptr %25, align 8
  %48 = getelementptr inbounds i8, ptr %47, i64 16
  %49 = load i32, ptr %48, align 8
  %.not = icmp eq i32 %49, 10
  br i1 %46, label %50, label %51

50:                                               ; preds = %42
  br i1 %.not, label %.thread25, label %.thread22

51:                                               ; preds = %42
  br i1 %.not, label %.thread22, label %.thread25

.thread25:                                        ; preds = %50, %51, %40
  %52 = tail call noundef zeroext i1 @_ZN9CGOptions8lang_cppEv()
  br i1 %52, label %.thread22, label %53

53:                                               ; preds = %.thread25
  %54 = load ptr, ptr %23, align 8
  %55 = tail call noundef i64 @_ZNK4Type11SizeInBytesEv(ptr noundef nonnull align 8 dereferenceable(136) %54)
  %56 = load ptr, ptr %25, align 8
  %57 = tail call noundef i64 @_ZNK4Type11SizeInBytesEv(ptr noundef nonnull align 8 dereferenceable(136) %56)
  %58 = icmp eq i64 %55, %57
  br label %.thread22

.thread24:                                        ; preds = %17, %4, %6, %19, %31, %28
  br label %.thread22

.thread22:                                        ; preds = %15, %17, %.thread25, %50, %51, %34, %22, %2, %.thread24, %53
  %.0 = phi i1 [ false, %.thread24 ], [ %58, %53 ], [ true, %2 ], [ true, %22 ], [ true, %34 ], [ false, %51 ], [ false, %50 ], [ false, %.thread25 ], [ %16, %15 ], [ true, %17 ]
  ret i1 %.0
}